target datalayout = "e-m:e-p270:32:32-p271:32:32-p272:64:64-i64:64-i128:128-f80:128-n8:16:32:64-S128"
target triple = "x86_64-pc-linux-gnu"

@stdin = external global ptr, align 8

; Function Attrs: inlinehint nounwind willreturn memory(none) uwtable
define internal i32 @av_toupper(i32 noundef %0) #6 {
  %2 = alloca i32, align 4
  store i32 %0, ptr %2, align 4, !tbaa !8
  %3 = load i32, ptr %2, align 4, !tbaa !8
  %4 = icmp sge i32 %3, 97
  br i1 %4, label %5, label %11

5:                                                ; preds = %1
  %6 = load i32, ptr %2, align 4, !tbaa !8
  %7 = icmp sle i32 %6, 122
  br i1 %7, label %8, label %11

8:                                                ; preds = %5
  %9 = load i32, ptr %2, align 4, !tbaa !8
  %10 = xor i32 %9, 32
  store i32 %10, ptr %2, align 4, !tbaa !8
  br label %11

11:                                               ; preds = %8, %5, %1
  %12 = load i32, ptr %2, align 4, !tbaa !8
  ret i32 %12
}

; Function Attrs: inlinehint nounwind uwtable
define available_externally i32 @getchar() #4 {
  %1 = load ptr, ptr @stdin, align 8, !tbaa !14
  %2 = call i32 @getc(ptr noundef %1)
  ret i32 %2
}

; Function Attrs: nounwind uwtable
define i32 @read_yesno() #0 {
  %1 = alloca i32, align 4
  %2 = alloca i32, align 4
  call void @llvm.lifetime.start.p0(i64 4, ptr %1) #11
  %3 = call i32 @getchar()
  store i32 %3, ptr %1, align 4, !tbaa !8
  call void @llvm.lifetime.start.p0(i64 4, ptr %2) #11
  %4 = load i32, ptr %1, align 4, !tbaa !8
  %5 = call i32 @av_toupper(i32 noundef %4) #14
  %6 = icmp eq i32 %5, 89
  %7 = zext i1 %6 to i32
  store i32 %7, ptr %2, align 4, !tbaa !8
  br label %8

8:                                                ; preds = %16, %0
  %9 = load i32, ptr %1, align 4, !tbaa !8
  %10 = icmp ne i32 %9, 10
  br i1 %10, label %11, label %14

11:                                               ; preds = %8
  %12 = load i32, ptr %1, align 4, !tbaa !8
  %13 = icmp ne i32 %12, -1
  br label %14

14:                                               ; preds = %11, %8
  %15 = phi i1 [ false, %8 ], [ %13, %11 ]
  br i1 %15, label %16, label %18

16:                                               ; preds = %14
  %17 = call i32 @getchar()
  store i32 %17, ptr %1, align 4, !tbaa !8
  br label %8, !llvm.loop !117

18:                                               ; preds = %14
  %19 = load i32, ptr %2, align 4, !tbaa !8
  call void @llvm.lifetime.end.p0(i64 4, ptr %2) #11
  call void @llvm.lifetime.end.p0(i64 4, ptr %1) #11
  ret i32 %19
}