; Function Attrs: nofree nounwind uwtable
define range(i32 0, 2) i32 @read_yesno() local_unnamed_addr #2 {
  %1 = load ptr, ptr @stdin, align 8, !tbaa !4
  %2 = tail call i32 @getc(ptr noundef %1)
  br label %3

3:                                                ; preds = %4, %0
  %.0 = phi i32 [ %2, %0 ], [ %6, %4 ]
  switch i32 %.0, label %4 [
    i32 -1, label %7
    i32 10, label %7
  ]

4:                                                ; preds = %3
  %5 = load ptr, ptr @stdin, align 8, !tbaa !4
  %6 = tail call i32 @getc(ptr noundef %5)
  br label %3, !llvm.loop !96

7:                                                ; preds = %3, %3
  %8 = add i32 %2, -97
  %or.cond.i = icmp ult i32 %8, 26
  %9 = and i32 %2, 95
  %spec.select.i = select i1 %or.cond.i, i32 %9, i32 %2
  %10 = icmp eq i32 %spec.select.i, 89
  %11 = zext i1 %10 to i32
  ret i32 %11
}